; Function Attrs: nounwind sspstrong uwtable
define internal i64 @strscan_set_string(i64 noundef %0, i64 noundef %1) #0 {
  %3 = alloca i64, align 8
  store i64 %1, ptr %3, align 8, !tbaa !10
  %4 = tail call ptr @rb_check_typeddata(i64 noundef %0, ptr noundef nonnull @strscanner_type) #12
  %5 = call i64 @rb_string_value(ptr noundef nonnull %3) #12
  %6 = load i64, ptr %3, align 8, !tbaa !10
  %7 = getelementptr inbounds nuw i8, ptr %4, i64 8
  store i64 %6, ptr %7, align 8, !tbaa !23
  %8 = getelementptr inbounds nuw i8, ptr %4, i64 24
  store i64 0, ptr %8, align 8, !tbaa !29
  %9 = load i64, ptr %4, align 8, !tbaa !18
  %10 = and i64 %9, -2
  store i64 %10, ptr %4, align 8, !tbaa !18
  ret i64 %6
}